ccopy_reg
_reconstructor
p1
(csklearn.preprocessing.label
LabelEncoder
p2
c__builtin__
object
p3
NtRp4
(dp5
S'classes_'
p6
cnumpy.core.multiarray
_reconstruct
p7
(cnumpy
ndarray
p8
(I0
tS'b'
tRp9
(I1
(I4
tcnumpy
dtype
p10
(S'O8'
I0
I1
tRp11
(I3
S'|'
NNNI-1
I-1
I63
tbI00
(lp12
Vb
aVe
aVm
aVt
atbsS'_sklearn_version'
p13
S'0.18.2'
p14
sb.